#include <math.h>
#include <stdio.h>
#include <stdlib.h>
#include <string.h>

int main()
{
     int a[1000];
	 int n,k,i,j;
	 scanf("%d%d",&n,&k);
	 for(i=0;i<n;i++)
	 { scanf("%d",&a[i]);}
	 for(i=0;i<n;i++)
	 {  j=i+1;
	 for(;j<n;j++)
	 {  if(k==(a[i]+a[j]))
	 {printf("yes");
	   i=-1;break;}
	 }
	    if(i==-1)
			break;
		if(i==n-1)
		{printf("no");
		break;}
	 }

      return 0;
}