; ModuleID = 'source-C-CXX/2/2105.c'
source_filename = "source-C-CXX/2/2105.c"
target datalayout = "e-m:e-p270:32:32-p271:32:32-p272:64:64-i64:64-f80:128-n8:16:32:64-S128"
target triple = "x86_64-pc-linux-gnu"

@.str = private unnamed_addr constant [5 x i8] c"%d%d\00", align 1
@.str.1 = private unnamed_addr constant [3 x i8] c"%d\00", align 1
@.str.2 = private unnamed_addr constant [4 x i8] c"yes\00", align 1
@.str.3 = private unnamed_addr constant [3 x i8] c"no\00", align 1

; Function Attrs: nofree nounwind sspstrong uwtable
define dso_local i32 @main() local_unnamed_addr #0 {
  %1 = alloca [1000 x i32], align 16
  %2 = alloca i32, align 4
  %3 = alloca i32, align 4
  %4 = bitcast [1000 x i32]* %1 to i8*
  call void @llvm.lifetime.start.p0i8(i64 4000, i8* nonnull %4) #3
  %5 = bitcast i32* %2 to i8*
  call void @llvm.lifetime.start.p0i8(i64 4, i8* nonnull %5) #3
  %6 = bitcast i32* %3 to i8*
  call void @llvm.lifetime.start.p0i8(i64 4, i8* nonnull %6) #3
  %7 = call i32 (i8*, ...) @__isoc99_scanf(i8* getelementptr inbounds ([5 x i8], [5 x i8]* @.str, i64 0, i64 0), i32* nonnull %2, i32* nonnull %3)
  %8 = load i32, i32* %2, align 4, !tbaa !5
  %9 = icmp sgt i32 %8, 0
  br i1 %9, label %17, label %44

10:                                               ; preds = %17
  %11 = load i32, i32* %3, align 4
  %12 = icmp sgt i32 %22, 0
  br i1 %12, label %13, label %44

13:                                               ; preds = %10
  %14 = add nsw i32 %22, -1
  %15 = zext i32 %14 to i64
  %16 = sext i32 %22 to i64
  br label %25

17:                                               ; preds = %0, %17
  %18 = phi i64 [ %21, %17 ], [ 0, %0 ]
  %19 = getelementptr inbounds [1000 x i32], [1000 x i32]* %1, i64 0, i64 %18
  %20 = call i32 (i8*, ...) @__isoc99_scanf(i8* getelementptr inbounds ([3 x i8], [3 x i8]* @.str.1, i64 0, i64 0), i32* nonnull %19)
  %21 = add nuw nsw i64 %18, 1
  %22 = load i32, i32* %2, align 4, !tbaa !5
  %23 = sext i32 %22 to i64
  %24 = icmp slt i64 %21, %23
  br i1 %24, label %17, label %10, !llvm.loop !9

25:                                               ; preds = %38, %13
  %26 = phi i64 [ 0, %13 ], [ %40, %38 ]
  %27 = getelementptr inbounds [1000 x i32], [1000 x i32]* %1, i64 0, i64 %26
  br label %28

28:                                               ; preds = %25, %32
  %29 = phi i64 [ %26, %25 ], [ %30, %32 ]
  %30 = add nuw nsw i64 %29, 1
  %31 = icmp slt i64 %30, %16
  br i1 %31, label %32, label %38

32:                                               ; preds = %28
  %33 = load i32, i32* %27, align 4, !tbaa !5
  %34 = getelementptr inbounds [1000 x i32], [1000 x i32]* %1, i64 0, i64 %30
  %35 = load i32, i32* %34, align 4, !tbaa !5
  %36 = add nsw i32 %35, %33
  %37 = icmp eq i32 %11, %36
  br i1 %37, label %41, label %28, !llvm.loop !11

38:                                               ; preds = %28
  %39 = icmp eq i64 %26, %15
  %40 = add nuw nsw i64 %26, 1
  br i1 %39, label %41, label %25, !llvm.loop !12

41:                                               ; preds = %38, %32
  %42 = phi i8* [ getelementptr inbounds ([4 x i8], [4 x i8]* @.str.2, i64 0, i64 0), %32 ], [ getelementptr inbounds ([3 x i8], [3 x i8]* @.str.3, i64 0, i64 0), %38 ]
  %43 = call i32 (i8*, ...) @printf(i8* nonnull dereferenceable(1) %42)
  br label %44

44:                                               ; preds = %41, %0, %10
  call void @llvm.lifetime.end.p0i8(i64 4, i8* nonnull %6) #3
  call void @llvm.lifetime.end.p0i8(i64 4, i8* nonnull %5) #3
  call void @llvm.lifetime.end.p0i8(i64 4000, i8* nonnull %4) #3
  ret i32 0
}

; Function Attrs: argmemonly mustprogress nofree nosync nounwind willreturn
declare void @llvm.lifetime.start.p0i8(i64 immarg, i8* nocapture) #1

; Function Attrs: nofree nounwind
declare noundef i32 @__isoc99_scanf(i8* nocapture noundef readonly, ...) local_unnamed_addr #2

; Function Attrs: nofree nounwind
declare noundef i32 @printf(i8* nocapture noundef readonly, ...) local_unnamed_addr #2

; Function Attrs: argmemonly mustprogress nofree nosync nounwind willreturn
declare void @llvm.lifetime.end.p0i8(i64 immarg, i8* nocapture) #1


!llvm.module.flags = !{!0, !1, !2, !3}
!llvm.ident = !{!4}

!0 = !{i32 1, !"wchar_size", i32 4}
!1 = !{i32 7, !"PIC Level", i32 2}
!2 = !{i32 7, !"PIE Level", i32 2}
!3 = !{i32 7, !"uwtable", i32 1}
!4 = !{!"clang version 13.0.0"}
!5 = !{!6, !6, i64 0}
!6 = !{!"int", !7, i64 0}
!7 = !{!"omnipotent char", !8, i64 0}
!8 = !{!"Simple C/C++ TBAA"}
!9 = distinct !{!9, !10}
!10 = !{!"llvm.loop.mustprogress"}
!11 = distinct !{!11, !10}
!12 = distinct !{!12, !10}
